; Function Attrs: nofree norecurse nosync nounwind sspstrong memory(argmem: readwrite) uwtable
define hidden void @FLAC__lpc_compute_autocorrelation_intrin_fma_lag_16(ptr noundef readonly captures(none) %data, i32 noundef %data_len, i32 noundef %lag, ptr noundef captures(none) initializes((0, 128)) %autoc) local_unnamed_addr #0 {
entry:
  tail call void @llvm.memset.p0.i64(ptr noundef nonnull align 8 dereferenceable(128) %autoc, i8 0, i64 128, i1 false)
  br label %for.cond4.preheader

for.cond4.preheader:                              ; preds = %entry, %for.inc17
  %indvars.iv38 = phi i64 [ 0, %entry ], [ %indvars.iv.next39, %for.inc17 ]
  %indvars.iv36 = phi i64 [ 1, %entry ], [ %indvars.iv.next37, %for.inc17 ]
  %arrayidx8 = getelementptr inbounds nuw float, ptr %data, i64 %indvars.iv38
  br label %for.body6

for.cond20.preheader:                             ; preds = %for.inc17
  %cmp2128 = icmp sgt i32 %data_len, 16
  br i1 %cmp2128, label %for.cond24.preheader.preheader, label %for.end42

for.cond24.preheader.preheader:                   ; preds = %for.cond20.preheader
  %wide.trip.count = zext nneg i32 %data_len to i64
  br label %for.cond24.preheader

for.body6:                                        ; preds = %for.cond4.preheader, %for.body6
  %indvars.iv = phi i64 [ 0, %for.cond4.preheader ], [ %indvars.iv.next, %for.body6 ]
  %0 = load float, ptr %arrayidx8, align 4
  %conv = fpext float %0 to double
  %1 = sub nuw nsw i64 %indvars.iv38, %indvars.iv
  %arrayidx10 = getelementptr inbounds nuw float, ptr %data, i64 %1
  %2 = load float, ptr %arrayidx10, align 4
  %conv11 = fpext float %2 to double
  %arrayidx13 = getelementptr inbounds nuw double, ptr %autoc, i64 %indvars.iv
  %3 = load double, ptr %arrayidx13, align 8
  %4 = tail call reassoc nsz arcp double @llvm.fmuladd.f64(double %conv, double %conv11, double %3)
  store double %4, ptr %arrayidx13, align 8
  %indvars.iv.next = add nuw nsw i64 %indvars.iv, 1
  %exitcond.not = icmp eq i64 %indvars.iv.next, %indvars.iv36
  br i1 %exitcond.not, label %for.inc17, label %for.body6, !llvm.loop !13

for.inc17:                                        ; preds = %for.body6
  %indvars.iv.next39 = add nuw nsw i64 %indvars.iv38, 1
  %indvars.iv.next37 = add nuw nsw i64 %indvars.iv36, 1
  %exitcond43.not = icmp eq i64 %indvars.iv.next39, 16
  br i1 %exitcond43.not, label %for.cond20.preheader, label %for.cond4.preheader, !llvm.loop !14

for.cond24.preheader:                             ; preds = %for.cond24.preheader.preheader, %for.inc40
  %indvars.iv49 = phi i64 [ 16, %for.cond24.preheader.preheader ], [ %indvars.iv.next50, %for.inc40 ]
  %arrayidx29 = getelementptr inbounds nuw float, ptr %data, i64 %indvars.iv49
  br label %for.body27

for.body27:                                       ; preds = %for.cond24.preheader, %for.body27
  %indvars.iv44 = phi i64 [ 0, %for.cond24.preheader ], [ %indvars.iv.next45, %for.body27 ]
  %5 = load float, ptr %arrayidx29, align 4
  %conv30 = fpext float %5 to double
  %6 = sub nuw nsw i64 %indvars.iv49, %indvars.iv44
  %arrayidx33 = getelementptr inbounds nuw float, ptr %data, i64 %6
  %7 = load float, ptr %arrayidx33, align 4
  %conv34 = fpext float %7 to double
  %arrayidx36 = getelementptr inbounds nuw double, ptr %autoc, i64 %indvars.iv44
  %8 = load double, ptr %arrayidx36, align 8
  %9 = tail call reassoc nsz arcp double @llvm.fmuladd.f64(double %conv30, double %conv34, double %8)
  store double %9, ptr %arrayidx36, align 8
  %indvars.iv.next45 = add nuw nsw i64 %indvars.iv44, 1
  %exitcond48.not = icmp eq i64 %indvars.iv.next45, 16
  br i1 %exitcond48.not, label %for.inc40, label %for.body27, !llvm.loop !15

for.inc40:                                        ; preds = %for.body27
  %indvars.iv.next50 = add nuw nsw i64 %indvars.iv49, 1
  %exitcond52.not = icmp eq i64 %indvars.iv.next50, %wide.trip.count
  br i1 %exitcond52.not, label %for.end42, label %for.cond24.preheader, !llvm.loop !16

for.end42:                                        ; preds = %for.inc40, %for.cond20.preheader
  ret void
}